target datalayout = "e-m:e-p270:32:32-p271:32:32-p272:64:64-i64:64-i128:128-f80:128-n8:16:32:64-S128"
target triple = "x86_64-pc-linux-gnu"

%"class.icu_77::UnicodeSetStringSpan" = type { [8 x i8], %"class.icu_77::UnicodeSet", ptr, ptr, ptr, ptr, ptr, i32, i32, i32, i8, [32 x i32] }
%"class.icu_77::UnicodeSet" = type <{ %"class.icu_77::UnicodeFilter", ptr, i32, i32, i8, [7 x i8], ptr, ptr, i32, [4 x i8], ptr, i32, [4 x i8], ptr, ptr, [25 x i32], [4 x i8] }>
%"class.icu_77::UnicodeFilter" = type { %"class.icu_77::UnicodeFunctor", %"class.icu_77::UnicodeMatcher" }
%"class.icu_77::UnicodeFunctor" = type { %"class.icu_77::UObject" }
%"class.icu_77::UObject" = type { ptr }
%"class.icu_77::UnicodeMatcher" = type { ptr }

; Function Attrs: mustprogress uwtable
define void @_ZN6icu_7720UnicodeSetStringSpan15addToSpanNotSetEi(ptr noundef nonnull align 8 dereferenceable(392) %0, i32 noundef %1) #0 align 2 {
  %3 = alloca ptr, align 8
  %4 = alloca i32, align 4
  %5 = alloca ptr, align 8
  %6 = alloca i32, align 4
  store ptr %0, ptr %3, align 8, !tbaa !3
  store i32 %1, ptr %4, align 4, !tbaa !12
  %7 = load ptr, ptr %3, align 8
  %8 = getelementptr inbounds nuw %"class.icu_77::UnicodeSetStringSpan", ptr %7, i32 0, i32 2
  %9 = load ptr, ptr %8, align 8, !tbaa !14
  %10 = icmp eq ptr %9, null
  br i1 %10, label %16, label %11

11:                                               ; preds = %2
  %12 = getelementptr inbounds nuw %"class.icu_77::UnicodeSetStringSpan", ptr %7, i32 0, i32 2
  %13 = load ptr, ptr %12, align 8, !tbaa !14
  %14 = getelementptr inbounds nuw %"class.icu_77::UnicodeSetStringSpan", ptr %7, i32 0, i32 1
  %15 = icmp eq ptr %13, %14
  br i1 %15, label %16, label %35

16:                                               ; preds = %11, %2
  %17 = getelementptr inbounds nuw %"class.icu_77::UnicodeSetStringSpan", ptr %7, i32 0, i32 1
  %18 = load i32, ptr %4, align 4, !tbaa !12
  %19 = call noundef signext i8 @_ZNK6icu_7710UnicodeSet8containsEi(ptr noundef nonnull align 8 dereferenceable(200) %17, i32 noundef %18)
  %20 = icmp ne i8 %19, 0
  br i1 %20, label %21, label %22

21:                                               ; preds = %16
  br label %40

22:                                               ; preds = %16
  call void @llvm.lifetime.start.p0(i64 8, ptr %5) #11
  %23 = getelementptr inbounds nuw %"class.icu_77::UnicodeSetStringSpan", ptr %7, i32 0, i32 1
  %24 = call noundef ptr @_ZNK6icu_7710UnicodeSet13cloneAsThawedEv(ptr noundef nonnull align 8 dereferenceable(200) %23)
  store ptr %24, ptr %5, align 8, !tbaa !8
  %25 = load ptr, ptr %5, align 8, !tbaa !8
  %26 = icmp eq ptr %25, null
  br i1 %26, label %27, label %28

27:                                               ; preds = %22
  store i32 1, ptr %6, align 4
  br label %32

28:                                               ; preds = %22
  %29 = load ptr, ptr %5, align 8, !tbaa !8
  %30 = getelementptr inbounds nuw %"class.icu_77::UnicodeSetStringSpan", ptr %7, i32 0, i32 2
  store ptr %29, ptr %30, align 8, !tbaa !14
  br label %31

31:                                               ; preds = %28
  store i32 0, ptr %6, align 4
  br label %32

32:                                               ; preds = %31, %27
  call void @llvm.lifetime.end.p0(i64 8, ptr %5) #11
  %33 = load i32, ptr %6, align 4
  switch i32 %33, label %41 [
    i32 0, label %34
    i32 1, label %40
  ]

34:                                               ; preds = %32
  br label %35

35:                                               ; preds = %34, %11
  %36 = getelementptr inbounds nuw %"class.icu_77::UnicodeSetStringSpan", ptr %7, i32 0, i32 2
  %37 = load ptr, ptr %36, align 8, !tbaa !14
  %38 = load i32, ptr %4, align 4, !tbaa !12
  %39 = call noundef nonnull align 8 dereferenceable(200) ptr @_ZN6icu_7710UnicodeSet3addEi(ptr noundef nonnull align 8 dereferenceable(200) %37, i32 noundef %38)
  br label %40

40:                                               ; preds = %35, %32, %21
  ret void

41:                                               ; preds = %32
  unreachable
}