; Function Attrs: mustprogress uwtable
define void @_ZN6icu_7720UnicodeSetStringSpan15addToSpanNotSetEi(ptr noundef nonnull align 8 dereferenceable(392) %0, i32 noundef %1) local_unnamed_addr #0 align 2 {
  %3 = getelementptr inbounds nuw i8, ptr %0, i64 208
  %4 = load ptr, ptr %3, align 8, !tbaa !3
  %5 = icmp eq ptr %4, null
  %6 = getelementptr inbounds nuw i8, ptr %0, i64 8
  %7 = icmp eq ptr %4, %6
  %or.cond = select i1 %5, i1 true, i1 %7
  br i1 %or.cond, label %8, label %13

8:                                                ; preds = %2
  %9 = tail call noundef signext i8 @_ZNK6icu_7710UnicodeSet8containsEi(ptr noundef nonnull align 8 dereferenceable(200) %6, i32 noundef %1)
  %.not = icmp eq i8 %9, 0
  br i1 %.not, label %10, label %16

10:                                               ; preds = %8
  %11 = tail call noundef ptr @_ZNK6icu_7710UnicodeSet13cloneAsThawedEv(ptr noundef nonnull align 8 dereferenceable(200) %6)
  %12 = icmp eq ptr %11, null
  br i1 %12, label %16, label %.thread

.thread:                                          ; preds = %10
  store ptr %11, ptr %3, align 8, !tbaa !3
  br label %13

13:                                               ; preds = %.thread, %2
  %14 = phi ptr [ %11, %.thread ], [ %4, %2 ]
  %15 = tail call noundef nonnull align 8 dereferenceable(200) ptr @_ZN6icu_7710UnicodeSet3addEi(ptr noundef nonnull align 8 dereferenceable(200) %14, i32 noundef %1)
  br label %16

16:                                               ; preds = %10, %8, %13
  ret void
}